Certificate:
    Data:
        Version: 1 (0x0)
        Serial Number:
            1e:76:1f:18:87:2e:30:02:7b:20:8a:a2:f6:65:34:22:19:10:4b:17
        Signature Algorithm: sha256WithRSAEncryption
        Issuer: C=DE, ST=Bayern, L=Simbach am Inn, O=Easyware, OU=Information Security, CN=rootca.easyware.io/emailAddress=danilo@easyware.io
        Validity
            Not Before: Sep 17 15:29:22 2021 GMT
            Not After : Sep 15 15:29:22 2031 GMT
        Subject: C=DE, ST=Bayern, O=Easyware, OU=Information Security, CN=localhost
        Subject Public Key Info:
            Public Key Algorithm: rsaEncryption
                RSA Public-Key: (2048 bit)
                Modulus:
                    00:f2:78:5f:5e:96:bd:f9:e6:ab:34:a7:bf:3c:69:
                    f9:de:b8:21:85:82:5b:07:b6:ea:c1:d6:bd:b7:f3:
                    ff:5e:e6:0b:0e:f1:ec:26:09:1f:66:8f:1c:71:c5:
                    a3:b0:cb:71:84:7b:35:1d:37:9d:6c:c7:50:54:21:
                    57:7c:f3:5d:46:8c:36:84:10:87:98:96:d4:c0:77:
                    d3:54:ea:f3:6b:d0:4a:06:a3:93:da:1c:fd:7d:99:
                    7e:32:e3:9a:5c:9a:72:32:3b:82:4d:50:c2:ff:74:
                    0d:7a:12:4e:b9:b4:6e:5f:a4:ff:e1:e6:3c:f3:c2:
                    a3:04:d3:21:af:b9:1f:de:83:71:0a:17:dd:48:9d:
                    13:3b:cd:41:bb:a4:b0:58:02:a8:5f:2a:79:05:fc:
                    b6:44:61:83:90:35:30:ec:2b:8c:35:55:9c:cb:c6:
                    87:bb:7e:79:8b:10:bf:fa:34:9e:e1:09:74:a5:eb:
                    93:dd:37:58:53:0e:b4:26:df:b3:f1:fe:f6:ae:f0:
                    e6:11:fc:a6:d7:bb:20:35:16:ef:f8:81:d3:19:d3:
                    f5:68:48:7a:2c:d9:f0:b0:b9:d9:30:66:43:2d:91:
                    7c:c2:df:6a:19:57:36:2b:f7:04:88:1e:60:e9:dc:
                    e9:dd:9d:99:bd:48:07:cd:af:51:3b:87:2f:ec:bc:
                    e4:ad
                Exponent: 65537 (0x10001)
    Signature Algorithm: sha256WithRSAEncryption
         07:20:ed:40:71:5d:70:f2:bf:99:e4:30:0d:af:d1:59:2f:a1:
         08:cd:ad:e1:28:ea:7d:2e:a7:a6:fa:7d:74:33:cd:66:ae:d8:
         75:6c:4d:67:da:8b:20:db:6b:fa:0e:06:14:9b:5e:33:60:96:
         11:53:43:cc:a0:eb:33:2f:da:40:37:f0:ce:1b:88:c5:87:72:
         00:cf:83:a6:a0:ac:4e:7d:41:1c:dc:a9:52:61:55:5f:40:2a:
         5f:3a:84:a1:19:4c:b4:8f:9c:30:78:92:10:ee:4b:6e:7e:38:
         54:a0:ae:7a:03:d3:c6:6e:59:b3:1f:5f:31:ba:dd:68:40:5e:
         36:20:cb:0b:20:83:df:07:04:04:95:3e:41:7d:75:31:ad:f6:
         b6:e8:96:8a:00:79:de:ac:91:bc:f2:ac:a3:ae:a4:45:d6:78:
         94:eb:c5:f9:cc:c3:69:c8:a7:b3:33:d8:ec:16:43:3d:05:88:
         6b:cc:3e:dd:50:28:5b:cc:55:48:9a:24:04:37:cb:b3:99:5d:
         cf:af:a7:5f:ec:6b:b1:b8:e8:86:92:2e:79:59:9d:90:d8:d3:
         a0:9d:97:79:5a:ad:c6:63:f7:c9:5d:35:fd:46:c5:f1:6f:35:
         8c:d6:57:5a:62:97:a6:a4:e5:59:50:75:c9:5e:93:47:05:b8:
         1f:46:0e:07:08:04:48:8b:ee:1b:07:f9:4d:83:97:ae:6b:6d:
         7a:d2:4f:06:e0:09:7d:71:10:8d:8e:f8:8b:34:f7:74:e4:32:
         b7:9c:15:40:ea:d6:72:1d:05:01:a7:1a:e4:1f:83:db:70:8b:
         1b:f2:05:7b:99:23:79:2a:4f:5a:42:72:c4:ad:ca:50:9c:24:
         a0:0b:aa:57:19:b2:37:d8:32:ed:2f:2d:e0:b6:4b:6d:82:ec:
         64:32:4b:33:41:b1:e7:70:84:8c:95:fd:d6:2a:dc:d5:1b:01:
         75:d7:b2:79:15:ac:bf:ce:81:37:c4:28:ce:5d:31:16:f6:67:
         e3:3f:05:48:76:64:b1:90:f6:17:e9:20:df:b5:11:cc:88:e8:
         76:bc:1d:d4:a8:ed:ec:86:53:14:7d:84:67:58:59:37:c3:a1:
         3d:27:18:fc:35:34:d1:df:58:c2:6c:44:47:06:59:cb:5f:07:
         01:09:2c:e9:40:5c:af:53:3c:43:e8:6a:a8:b2:bb:2a:45:c4:
         f6:4b:e9:09:ad:44:8a:ad:e0:95:2b:de:5d:9b:b3:3b:53:7d:
         15:d0:99:81:c0:77:10:9a:d9:b1:0c:a0:08:01:15:24:bb:90:
         2b:22:ac:cb:ec:50:2e:61:64:31:4c:51:5d:3d:a7:f0:97:3d:
         b7:57:a2:55:c8:a0:c9:1b
-----BEGIN CERTIFICATE-----
MIIElTCCAn0CFB52HxiHLjACeyCKovZlNCIZEEsXMA0GCSqGSIb3DQEBCwUAMIGp
MQswCQYDVQQGEwJERTEPMA0GA1UECAwGQmF5ZXJuMRcwFQYDVQQHDA5TaW1iYWNo
IGFtIElubjERMA8GA1UECgwIRWFzeXdhcmUxHTAbBgNVBAsMFEluZm9ybWF0aW9u
IFNlY3VyaXR5MRswGQYDVQQDDBJyb290Y2EuZWFzeXdhcmUuaW8xITAfBgkqhkiG
9w0BCQEWEmRhbmlsb0BlYXN5d2FyZS5pbzAeFw0yMTA5MTcxNTI5MjJaFw0zMTA5
MTUxNTI5MjJaMGQxCzAJBgNVBAYTAkRFMQ8wDQYDVQQIDAZCYXllcm4xETAPBgNV
BAoMCEVhc3l3YXJlMR0wGwYDVQQLDBRJbmZvcm1hdGlvbiBTZWN1cml0eTESMBAG
A1UEAwwJbG9jYWxob3N0MIIBIjANBgkqhkiG9w0BAQEFAAOCAQ8AMIIBCgKCAQEA
8nhfXpa9+earNKe/PGn53rghhYJbB7bqwda9t/P/XuYLDvHsJgkfZo8cccWjsMtx
hHs1HTedbMdQVCFXfPNdRow2hBCHmJbUwHfTVOrza9BKBqOT2hz9fZl+MuOaXJpy
MjuCTVDC/3QNehJOubRuX6T/4eY888KjBNMhr7kf3oNxChfdSJ0TO81Bu6SwWAKo
Xyp5Bfy2RGGDkDUw7CuMNVWcy8aHu355ixC/+jSe4Ql0peuT3TdYUw60Jt+z8f72
rvDmEfym17sgNRbv+IHTGdP1aEh6LNnwsLnZMGZDLZF8wt9qGVc2K/cEiB5g6dzp
3Z2ZvUgHza9RO4cv7LzkrQIDAQABMA0GCSqGSIb3DQEBCwUAA4ICAQAHIO1AcV1w
8r+Z5DANr9FZL6EIza3hKOp9Lqem+n10M81mrth1bE1n2osg22v6DgYUm14zYJYR
U0PMoOszL9pAN/DOG4jFh3IAz4OmoKxOfUEc3KlSYVVfQCpfOoShGUy0j5wweJIQ
7ktufjhUoK56A9PGblmzH18xut1oQF42IMsLIIPfBwQElT5BfXUxrfa26JaKAHne
rJG88qyjrqRF1niU68X5zMNpyKezM9jsFkM9BYhrzD7dUChbzFVImiQEN8uzmV3P
r6df7GuxuOiGki55WZ2Q2NOgnZd5Wq3GY/fJXTX9RsXxbzWM1ldaYpempOVZUHXJ
XpNHBbgfRg4HCARIi+4bB/lNg5eua2160k8G4Al9cRCNjviLNPd05DK3nBVA6tZy
HQUBpxrkH4PbcIsb8gV7mSN5Kk9aQnLErcpQnCSgC6pXGbI32DLtLy3gtkttguxk
MkszQbHncISMlf3WKtzVGwF117J5Fay/zoE3xCjOXTEW9mfjPwVIdmSxkPYX6SDf
tRHMiOh2vB3UqO3shlMUfYRnWFk3w6E9Jxj8NTTR31jCbERHBlnLXwcBCSzpQFyv
UzxD6GqosrsqRcT2S+kJrUSKreCVK95dm7M7U30V0JmBwHcQmtmxDKAIARUku5Ar
IqzL7FAuYWQxTFFdPafwlz23V6JVyKDJGw==
-----END CERTIFICATE-----
